(dp1
S'failed'
p2
(lp3
sS'source_names'
p4
(lp5
S'.'
asS'ids'
p6
(dp7
I1
(S'/home/cbdavide/.qgis2/python/plugins/CalidadCAR/test/test_calidad_car_dialog.py'
S'CalidadCAR.test.test_calidad_car_dialog'
p8
S'CalidadCARDialogTest.test_dialog_cancel'
tp9
sI2
(S'/home/cbdavide/.qgis2/python/plugins/CalidadCAR/test/test_calidad_car_dialog.py'
g8
S'CalidadCARDialogTest.test_dialog_ok'
tp10
sI3
(S'/home/cbdavide/.qgis2/python/plugins/CalidadCAR/test/test_calidad_car_dialog.py'
g8
S'CalidadCARDialogTest.test_getFilePaths'
tp11
sI4
(S'/home/cbdavide/.qgis2/python/plugins/CalidadCAR/test/test_init.py'
S'CalidadCAR.test.test_init'
S'TestInit.test_read_init'
tp12
sI5
(S'/home/cbdavide/.qgis2/python/plugins/CalidadCAR/test/test_qgis_environment.py'
S'CalidadCAR.test.test_qgis_environment'
p13
S'QGISTest.test_projection'
tp14
sI6
(S'/home/cbdavide/.qgis2/python/plugins/CalidadCAR/test/test_qgis_environment.py'
g13
S'QGISTest.test_qgis_environment'
tp15
sI7
(S'/home/cbdavide/.qgis2/python/plugins/CalidadCAR/test/test_resources.py'
S'CalidadCAR.test.test_resources'
S'CalidadCARDialogTest.test_icon_png'
tp16
sI8
(S'/home/cbdavide/.qgis2/python/plugins/CalidadCAR/test/test_translations.py'
S'CalidadCAR.test.test_translations'
S'SafeTranslationsTest.test_qgis_translations'
tp17
sI9
(S'/home/cbdavide/.qgis2/python/plugins/CalidadCAR/test/test_calidad_car_dialog.py'
S'CalidadCAR.test.test_calidad_car_dialog'
S'CalidadCARDialogTest.test002_getFilePaths'
tp18
sI10
(S'/home/cbdavide/.qgis2/python/plugins/CalidadCAR/test/test_calidad_car_dialog.py'
S'CalidadCAR.test.test_calidad_car_dialog'
S'CalidadCARDialogTest.test001_getFilePaths'
tp19
ss.